target datalayout = "e-m:e-p270:32:32-p271:32:32-p272:64:64-i64:64-i128:128-f80:128-n8:16:32:64-S128"
target triple = "x86_64-pc-linux-gnu"

%"class.llvm::APInt" = type <{ %union.anon.32, i32, [4 x i8] }>
%union.anon.32 = type { i64 }

; Function Attrs: mustprogress nounwind uwtable
define linkonce_odr hidden noundef i32 @_ZN4llvm5APInt9whichWordEj(i32 noundef %0) #0 comdat align 2 {
  %2 = alloca i32, align 4
  store i32 %0, ptr %2, align 4
  %3 = load i32, ptr %2, align 4
  %4 = udiv i32 %3, 64
  ret i32 %4
}

; Function Attrs: mustprogress nounwind uwtable
define linkonce_odr hidden noundef i32 @_ZN4llvm5APInt8whichBitEj(i32 noundef %0) #0 comdat align 2 {
  %2 = alloca i32, align 4
  store i32 %0, ptr %2, align 4
  %3 = load i32, ptr %2, align 4
  %4 = urem i32 %3, 64
  ret i32 %4
}

; Function Attrs: mustprogress nounwind uwtable
define linkonce_odr hidden noundef i32 @_ZN4llvm5APInt11getNumWordsEj(i32 noundef %0) #0 comdat align 2 {
  %2 = alloca i32, align 4
  store i32 %0, ptr %2, align 4
  %3 = load i32, ptr %2, align 4
  %4 = zext i32 %3 to i64
  %5 = add i64 %4, 64
  %6 = sub i64 %5, 1
  %7 = udiv i64 %6, 64
  %8 = trunc i64 %7 to i32
  ret i32 %8
}

; Function Attrs: mustprogress nounwind uwtable
define linkonce_odr hidden noundef i64 @_ZNK4llvm5APInt7getWordEj(ptr noundef nonnull align 8 dereferenceable(12) %0, i32 noundef %1) #0 comdat align 2 {
  %3 = alloca ptr, align 8
  %4 = alloca i32, align 4
  store ptr %0, ptr %3, align 8
  store i32 %1, ptr %4, align 4
  %5 = load ptr, ptr %3, align 8
  %6 = call noundef zeroext i1 @_ZNK4llvm5APInt12isSingleWordEv(ptr noundef nonnull align 8 dereferenceable(12) %5)
  br i1 %6, label %7, label %10

7:                                                ; preds = %2
  %8 = getelementptr inbounds nuw %"class.llvm::APInt", ptr %5, i32 0, i32 0
  %9 = load i64, ptr %8, align 8
  br label %18

10:                                               ; preds = %2
  %11 = getelementptr inbounds nuw %"class.llvm::APInt", ptr %5, i32 0, i32 0
  %12 = load ptr, ptr %11, align 8
  %13 = load i32, ptr %4, align 4
  %14 = call noundef i32 @_ZN4llvm5APInt9whichWordEj(i32 noundef %13)
  %15 = zext i32 %14 to i64
  %16 = getelementptr inbounds i64, ptr %12, i64 %15
  %17 = load i64, ptr %16, align 8
  br label %18

18:                                               ; preds = %10, %7
  %19 = phi i64 [ %9, %7 ], [ %17, %10 ]
  ret i64 %19
}

; Function Attrs: mustprogress nounwind uwtable
define linkonce_odr hidden noundef i64 @_ZN4llvm5APInt7maskBitEj(i32 noundef %0) #0 comdat align 2 {
  %2 = alloca i32, align 4
  store i32 %0, ptr %2, align 4
  %3 = load i32, ptr %2, align 4
  %4 = call noundef i32 @_ZN4llvm5APInt8whichBitEj(i32 noundef %3)
  %5 = zext i32 %4 to i64
  %6 = shl i64 1, %5
  ret i64 %6
}

; Function Attrs: mustprogress nounwind uwtable
define linkonce_odr hidden noundef i32 @_ZNK4llvm5APInt11getNumWordsEv(ptr noundef nonnull align 8 dereferenceable(12) %0) #0 comdat align 2 {
  %2 = alloca ptr, align 8
  store ptr %0, ptr %2, align 8
  %3 = load ptr, ptr %2, align 8
  %4 = getelementptr inbounds nuw %"class.llvm::APInt", ptr %3, i32 0, i32 1
  %5 = load i32, ptr %4, align 8
  %6 = call noundef i32 @_ZN4llvm5APInt11getNumWordsEj(i32 noundef %5)
  ret i32 %6
}

; Function Attrs: mustprogress nounwind uwtable
define linkonce_odr hidden noundef zeroext i1 @_ZNK4llvm5APIntixEj(ptr noundef nonnull align 8 dereferenceable(12) %0, i32 noundef %1) #0 comdat align 2 {
  %3 = alloca ptr, align 8
  %4 = alloca i32, align 4
  store ptr %0, ptr %3, align 8
  store i32 %1, ptr %4, align 4
  %5 = load ptr, ptr %3, align 8
  %6 = load i32, ptr %4, align 4
  %7 = call noundef i64 @_ZN4llvm5APInt7maskBitEj(i32 noundef %6)
  %8 = load i32, ptr %4, align 4
  %9 = call noundef i64 @_ZNK4llvm5APInt7getWordEj(ptr noundef nonnull align 8 dereferenceable(12) %5, i32 noundef %8)
  %10 = and i64 %7, %9
  %11 = icmp ne i64 %10, 0
  ret i1 %11
}

; Function Attrs: mustprogress nounwind uwtable
define linkonce_odr hidden noundef zeroext i1 @_ZNK4llvm5APInt12needsCleanupEv(ptr noundef nonnull align 8 dereferenceable(12) %0) #0 comdat align 2 {
  %2 = alloca ptr, align 8
  store ptr %0, ptr %2, align 8
  %3 = load ptr, ptr %2, align 8
  %4 = call noundef zeroext i1 @_ZNK4llvm5APInt12isSingleWordEv(ptr noundef nonnull align 8 dereferenceable(12) %3)
  %5 = xor i1 %4, true
  ret i1 %5
}

; Function Attrs: mustprogress nounwind uwtable
define linkonce_odr hidden noundef nonnull align 8 dereferenceable(12) ptr @_ZN4llvm5APInt15clearUnusedBitsEv(ptr noundef nonnull align 8 dereferenceable(12) %0) #0 comdat align 2 {
  %2 = alloca ptr, align 8
  %3 = alloca i32, align 4
  %4 = alloca i64, align 8
  store ptr %0, ptr %2, align 8
  %5 = load ptr, ptr %2, align 8
  %6 = getelementptr inbounds nuw %"class.llvm::APInt", ptr %5, i32 0, i32 1
  %7 = load i32, ptr %6, align 8
  %8 = sub i32 %7, 1
  %9 = urem i32 %8, 64
  %10 = add i32 %9, 1
  store i32 %10, ptr %3, align 4
  %11 = load i32, ptr %3, align 4
  %12 = sub i32 64, %11
  %13 = zext i32 %12 to i64
  %14 = lshr i64 -1, %13
  store i64 %14, ptr %4, align 8
  %15 = getelementptr inbounds nuw %"class.llvm::APInt", ptr %5, i32 0, i32 1
  %16 = load i32, ptr %15, align 8
  %17 = icmp eq i32 %16, 0
  br i1 %17, label %18, label %19

18:                                               ; preds = %1
  store i64 0, ptr %4, align 8
  br label %19

19:                                               ; preds = %18, %1
  %20 = call noundef zeroext i1 @_ZNK4llvm5APInt12isSingleWordEv(ptr noundef nonnull align 8 dereferenceable(12) %5)
  br i1 %20, label %21, label %26

21:                                               ; preds = %19
  %22 = load i64, ptr %4, align 8
  %23 = getelementptr inbounds nuw %"class.llvm::APInt", ptr %5, i32 0, i32 0
  %24 = load i64, ptr %23, align 8
  %25 = and i64 %24, %22
  store i64 %25, ptr %23, align 8
  br label %36

26:                                               ; preds = %19
  %27 = load i64, ptr %4, align 8
  %28 = getelementptr inbounds nuw %"class.llvm::APInt", ptr %5, i32 0, i32 0
  %29 = load ptr, ptr %28, align 8
  %30 = call noundef i32 @_ZNK4llvm5APInt11getNumWordsEv(ptr noundef nonnull align 8 dereferenceable(12) %5)
  %31 = sub i32 %30, 1
  %32 = zext i32 %31 to i64
  %33 = getelementptr inbounds i64, ptr %29, i64 %32
  %34 = load i64, ptr %33, align 8
  %35 = and i64 %34, %27
  store i64 %35, ptr %33, align 8
  br label %36

36:                                               ; preds = %26, %21
  ret ptr %5
}

; Function Attrs: mustprogress nounwind uwtable
define linkonce_odr hidden noundef zeroext i1 @_ZNK4llvm5APInt10isNegativeEv(ptr noundef nonnull align 8 dereferenceable(12) %0) #0 comdat align 2 {
  %2 = alloca ptr, align 8
  store ptr %0, ptr %2, align 8
  %3 = load ptr, ptr %2, align 8
  %4 = getelementptr inbounds nuw %"class.llvm::APInt", ptr %3, i32 0, i32 1
  %5 = load i32, ptr %4, align 8
  %6 = sub i32 %5, 1
  %7 = call noundef zeroext i1 @_ZNK4llvm5APIntixEj(ptr noundef nonnull align 8 dereferenceable(12) %3, i32 noundef %6)
  ret i1 %7
}

; Function Attrs: mustprogress nounwind uwtable
define linkonce_odr hidden noundef zeroext i1 @_ZNK4llvm5APInt12isSingleWordEv(ptr noundef nonnull align 8 dereferenceable(12) %0) #0 comdat align 2 {
  %2 = alloca ptr, align 8
  store ptr %0, ptr %2, align 8
  %3 = load ptr, ptr %2, align 8
  %4 = getelementptr inbounds nuw %"class.llvm::APInt", ptr %3, i32 0, i32 1
  %5 = load i32, ptr %4, align 8
  %6 = icmp ule i32 %5, 64
  ret i1 %6
}

; Function Attrs: mustprogress nounwind uwtable
define linkonce_odr hidden void @_ZN4llvm5APIntD2Ev(ptr noundef nonnull align 8 dereferenceable(12) %0) unnamed_addr #0 comdat align 2 {
  %2 = alloca ptr, align 8
  store ptr %0, ptr %2, align 8
  %3 = load ptr, ptr %2, align 8
  %4 = call noundef zeroext i1 @_ZNK4llvm5APInt12needsCleanupEv(ptr noundef nonnull align 8 dereferenceable(12) %3)
  br i1 %4, label %5, label %11

5:                                                ; preds = %1
  %6 = getelementptr inbounds nuw %"class.llvm::APInt", ptr %3, i32 0, i32 0
  %7 = load ptr, ptr %6, align 8
  %8 = icmp eq ptr %7, null
  br i1 %8, label %10, label %9

9:                                                ; preds = %5
  call void @_ZdaPv(ptr noundef %7) #12
  br label %10

10:                                               ; preds = %9, %5
  br label %11

11:                                               ; preds = %10, %1
  ret void
}

; Function Attrs: mustprogress nounwind uwtable
define linkonce_odr hidden noundef zeroext i1 @_ZNK4llvm5APInt10isMinValueEv(ptr noundef nonnull align 8 dereferenceable(12) %0) #0 comdat align 2 {
  %2 = alloca ptr, align 8
  store ptr %0, ptr %2, align 8
  %3 = load ptr, ptr %2, align 8
  %4 = call noundef zeroext i1 @_ZNK4llvm5APInt6isZeroEv(ptr noundef nonnull align 8 dereferenceable(12) %3)
  ret i1 %4
}

; Function Attrs: mustprogress nounwind uwtable
define linkonce_odr hidden void @_ZN4llvm5APIntC2Ejmbb(ptr noundef nonnull align 8 dereferenceable(12) %0, i32 noundef %1, i64 noundef %2, i1 noundef zeroext %3, i1 noundef zeroext %4) unnamed_addr #0 comdat align 2 {
  %6 = alloca ptr, align 8
  %7 = alloca i32, align 4
  %8 = alloca i64, align 8
  %9 = alloca i8, align 1
  %10 = alloca i8, align 1
  store ptr %0, ptr %6, align 8
  store i32 %1, ptr %7, align 4
  store i64 %2, ptr %8, align 8
  %11 = zext i1 %3 to i8
  store i8 %11, ptr %9, align 1
  %12 = zext i1 %4 to i8
  store i8 %12, ptr %10, align 1
  %13 = load ptr, ptr %6, align 8
  %14 = getelementptr inbounds nuw %"class.llvm::APInt", ptr %13, i32 0, i32 1
  %15 = load i32, ptr %7, align 4
  store i32 %15, ptr %14, align 8
  %16 = load i8, ptr %10, align 1
  %17 = trunc i8 %16 to i1
  br i1 %17, label %30, label %18

18:                                               ; preds = %5
  %19 = getelementptr inbounds nuw %"class.llvm::APInt", ptr %13, i32 0, i32 1
  %20 = load i32, ptr %19, align 8
  %21 = icmp eq i32 %20, 0
  br i1 %21, label %22, label %23

22:                                               ; preds = %18
  br label %29

23:                                               ; preds = %18
  %24 = load i8, ptr %9, align 1
  %25 = trunc i8 %24 to i1
  br i1 %25, label %26, label %27

26:                                               ; preds = %23
  br label %28

27:                                               ; preds = %23
  br label %28

28:                                               ; preds = %27, %26
  br label %29

29:                                               ; preds = %28, %22
  br label %30

30:                                               ; preds = %29, %5
  %31 = call noundef zeroext i1 @_ZNK4llvm5APInt12isSingleWordEv(ptr noundef nonnull align 8 dereferenceable(12) %13)
  br i1 %31, label %32, label %43

32:                                               ; preds = %30
  %33 = load i64, ptr %8, align 8
  %34 = getelementptr inbounds nuw %"class.llvm::APInt", ptr %13, i32 0, i32 0
  store i64 %33, ptr %34, align 8
  %35 = load i8, ptr %10, align 1
  %36 = trunc i8 %35 to i1
  br i1 %36, label %40, label %37

37:                                               ; preds = %32
  %38 = load i8, ptr %9, align 1
  %39 = trunc i8 %38 to i1
  br i1 %39, label %40, label %42

40:                                               ; preds = %37, %32
  %41 = call noundef nonnull align 8 dereferenceable(12) ptr @_ZN4llvm5APInt15clearUnusedBitsEv(ptr noundef nonnull align 8 dereferenceable(12) %13)
  br label %42

42:                                               ; preds = %40, %37
  br label %47

43:                                               ; preds = %30
  %44 = load i64, ptr %8, align 8
  %45 = load i8, ptr %9, align 1
  %46 = trunc i8 %45 to i1
  call void @_ZN4llvm5APInt12initSlowCaseEmb(ptr noundef nonnull align 8 dereferenceable(12) %13, i64 noundef %44, i1 noundef zeroext %46)
  br label %47

47:                                               ; preds = %43, %42
  ret void
}

; Function Attrs: mustprogress nounwind uwtable
define linkonce_odr hidden noundef i32 @_ZNK4llvm5APInt11getBitWidthEv(ptr noundef nonnull align 8 dereferenceable(12) %0) #0 comdat align 2 {
  %2 = alloca ptr, align 8
  store ptr %0, ptr %2, align 8
  %3 = load ptr, ptr %2, align 8
  %4 = getelementptr inbounds nuw %"class.llvm::APInt", ptr %3, i32 0, i32 1
  %5 = load i32, ptr %4, align 8
  ret i32 %5
}

; Function Attrs: mustprogress nounwind uwtable
define linkonce_odr hidden noundef zeroext i1 @_ZNK4llvm5APInt9isAllOnesEv(ptr noundef nonnull align 8 dereferenceable(12) %0) #0 comdat align 2 {
  %2 = alloca i1, align 1
  %3 = alloca ptr, align 8
  store ptr %0, ptr %3, align 8
  %4 = load ptr, ptr %3, align 8
  %5 = getelementptr inbounds nuw %"class.llvm::APInt", ptr %4, i32 0, i32 1
  %6 = load i32, ptr %5, align 8
  %7 = icmp eq i32 %6, 0
  br i1 %7, label %8, label %9

8:                                                ; preds = %1
  store i1 true, ptr %2, align 1
  br label %25

9:                                                ; preds = %1
  %10 = call noundef zeroext i1 @_ZNK4llvm5APInt12isSingleWordEv(ptr noundef nonnull align 8 dereferenceable(12) %4)
  br i1 %10, label %11, label %20

11:                                               ; preds = %9
  %12 = getelementptr inbounds nuw %"class.llvm::APInt", ptr %4, i32 0, i32 0
  %13 = load i64, ptr %12, align 8
  %14 = getelementptr inbounds nuw %"class.llvm::APInt", ptr %4, i32 0, i32 1
  %15 = load i32, ptr %14, align 8
  %16 = sub i32 64, %15
  %17 = zext i32 %16 to i64
  %18 = lshr i64 -1, %17
  %19 = icmp eq i64 %13, %18
  store i1 %19, ptr %2, align 1
  br label %25

20:                                               ; preds = %9
  %21 = call noundef i32 @_ZNK4llvm5APInt25countTrailingOnesSlowCaseEv(ptr noundef nonnull align 8 dereferenceable(12) %4) #10
  %22 = getelementptr inbounds nuw %"class.llvm::APInt", ptr %4, i32 0, i32 1
  %23 = load i32, ptr %22, align 8
  %24 = icmp eq i32 %21, %23
  store i1 %24, ptr %2, align 1
  br label %25

25:                                               ; preds = %20, %11, %8
  %26 = load i1, ptr %2, align 1
  ret i1 %26
}

; Function Attrs: mustprogress nounwind uwtable
define linkonce_odr hidden noundef zeroext i1 @_ZNK4llvm5APInt16isMinSignedValueEv(ptr noundef nonnull align 8 dereferenceable(12) %0) #0 comdat align 2 {
  %2 = alloca i1, align 1
  %3 = alloca ptr, align 8
  store ptr %0, ptr %3, align 8
  %4 = load ptr, ptr %3, align 8
  %5 = call noundef zeroext i1 @_ZNK4llvm5APInt12isSingleWordEv(ptr noundef nonnull align 8 dereferenceable(12) %4)
  br i1 %5, label %6, label %15

6:                                                ; preds = %1
  %7 = getelementptr inbounds nuw %"class.llvm::APInt", ptr %4, i32 0, i32 0
  %8 = load i64, ptr %7, align 8
  %9 = getelementptr inbounds nuw %"class.llvm::APInt", ptr %4, i32 0, i32 1
  %10 = load i32, ptr %9, align 8
  %11 = sub i32 %10, 1
  %12 = zext i32 %11 to i64
  %13 = shl i64 1, %12
  %14 = icmp eq i64 %8, %13
  store i1 %14, ptr %2, align 1
  br label %25

15:                                               ; preds = %1
  %16 = call noundef zeroext i1 @_ZNK4llvm5APInt10isNegativeEv(ptr noundef nonnull align 8 dereferenceable(12) %4)
  br i1 %16, label %17, label %23

17:                                               ; preds = %15
  %18 = call noundef i32 @_ZNK4llvm5APInt26countTrailingZerosSlowCaseEv(ptr noundef nonnull align 8 dereferenceable(12) %4) #10
  %19 = getelementptr inbounds nuw %"class.llvm::APInt", ptr %4, i32 0, i32 1
  %20 = load i32, ptr %19, align 8
  %21 = sub i32 %20, 1
  %22 = icmp eq i32 %18, %21
  br label %23

23:                                               ; preds = %17, %15
  %24 = phi i1 [ false, %15 ], [ %22, %17 ]
  store i1 %24, ptr %2, align 1
  br label %25

25:                                               ; preds = %23, %6
  %26 = load i1, ptr %2, align 1
  ret i1 %26
}

; Function Attrs: mustprogress nounwind uwtable
define linkonce_odr hidden noundef zeroext i1 @_ZNK4llvm5APInt6isZeroEv(ptr noundef nonnull align 8 dereferenceable(12) %0) #0 comdat align 2 {
  %2 = alloca i1, align 1
  %3 = alloca ptr, align 8
  store ptr %0, ptr %3, align 8
  %4 = load ptr, ptr %3, align 8
  %5 = call noundef zeroext i1 @_ZNK4llvm5APInt12isSingleWordEv(ptr noundef nonnull align 8 dereferenceable(12) %4)
  br i1 %5, label %6, label %10

6:                                                ; preds = %1
  %7 = getelementptr inbounds nuw %"class.llvm::APInt", ptr %4, i32 0, i32 0
  %8 = load i64, ptr %7, align 8
  %9 = icmp eq i64 %8, 0
  store i1 %9, ptr %2, align 1
  br label %15

10:                                               ; preds = %1
  %11 = call noundef i32 @_ZNK4llvm5APInt25countLeadingZerosSlowCaseEv(ptr noundef nonnull align 8 dereferenceable(12) %4) #10
  %12 = getelementptr inbounds nuw %"class.llvm::APInt", ptr %4, i32 0, i32 1
  %13 = load i32, ptr %12, align 8
  %14 = icmp eq i32 %11, %13
  store i1 %14, ptr %2, align 1
  br label %15

15:                                               ; preds = %10, %6
  %16 = load i1, ptr %2, align 1
  ret i1 %16
}

; Function Attrs: mustprogress nounwind uwtable
define internal noundef zeroext i1 @_ZL10isMultipleRKN4llvm5APIntES2_RS0_b(ptr noundef nonnull align 8 dereferenceable(12) %0, ptr noundef nonnull align 8 dereferenceable(12) %1, ptr noundef nonnull align 8 dereferenceable(12) %2, i1 noundef zeroext %3) #0 {
  %5 = alloca i1, align 1
  %6 = alloca ptr, align 8
  %7 = alloca ptr, align 8
  %8 = alloca ptr, align 8
  %9 = alloca i8, align 1
  %10 = alloca %"class.llvm::APInt", align 8
  store ptr %0, ptr %6, align 8
  store ptr %1, ptr %7, align 8
  store ptr %2, ptr %8, align 8
  %11 = zext i1 %3 to i8
  store i8 %11, ptr %9, align 1
  %12 = load ptr, ptr %7, align 8
  %13 = call noundef zeroext i1 @_ZNK4llvm5APInt6isZeroEv(ptr noundef nonnull align 8 dereferenceable(12) %12)
  br i1 %13, label %14, label %15

14:                                               ; preds = %4
  store i1 false, ptr %5, align 1
  br label %42

15:                                               ; preds = %4
  %16 = load i8, ptr %9, align 1
  %17 = trunc i8 %16 to i1
  br i1 %17, label %18, label %25

18:                                               ; preds = %15
  %19 = load ptr, ptr %6, align 8
  %20 = call noundef zeroext i1 @_ZNK4llvm5APInt16isMinSignedValueEv(ptr noundef nonnull align 8 dereferenceable(12) %19)
  br i1 %20, label %21, label %25

21:                                               ; preds = %18
  %22 = load ptr, ptr %7, align 8
  %23 = call noundef zeroext i1 @_ZNK4llvm5APInt9isAllOnesEv(ptr noundef nonnull align 8 dereferenceable(12) %22)
  br i1 %23, label %24, label %25

24:                                               ; preds = %21
  store i1 false, ptr %5, align 1
  br label %42

25:                                               ; preds = %21, %18, %15
  %26 = load ptr, ptr %6, align 8
  %27 = call noundef i32 @_ZNK4llvm5APInt11getBitWidthEv(ptr noundef nonnull align 8 dereferenceable(12) %26)
  %28 = load i8, ptr %9, align 1
  %29 = trunc i8 %28 to i1
  call void @_ZN4llvm5APIntC2Ejmbb(ptr noundef nonnull align 8 dereferenceable(12) %10, i32 noundef %27, i64 noundef 0, i1 noundef zeroext %29, i1 noundef zeroext true)
  %30 = load i8, ptr %9, align 1
  %31 = trunc i8 %30 to i1
  br i1 %31, label %32, label %36

32:                                               ; preds = %25
  %33 = load ptr, ptr %6, align 8
  %34 = load ptr, ptr %7, align 8
  %35 = load ptr, ptr %8, align 8
  call void @_ZN4llvm5APInt7sdivremERKS0_S2_RS0_S3_(ptr noundef nonnull align 8 dereferenceable(12) %33, ptr noundef nonnull align 8 dereferenceable(12) %34, ptr noundef nonnull align 8 dereferenceable(12) %35, ptr noundef nonnull align 8 dereferenceable(12) %10)
  br label %40

36:                                               ; preds = %25
  %37 = load ptr, ptr %6, align 8
  %38 = load ptr, ptr %7, align 8
  %39 = load ptr, ptr %8, align 8
  call void @_ZN4llvm5APInt7udivremERKS0_S2_RS0_S3_(ptr noundef nonnull align 8 dereferenceable(12) %37, ptr noundef nonnull align 8 dereferenceable(12) %38, ptr noundef nonnull align 8 dereferenceable(12) %39, ptr noundef nonnull align 8 dereferenceable(12) %10)
  br label %40

40:                                               ; preds = %36, %32
  %41 = call noundef zeroext i1 @_ZNK4llvm5APInt10isMinValueEv(ptr noundef nonnull align 8 dereferenceable(12) %10)
  store i1 %41, ptr %5, align 1
  call void @_ZN4llvm5APIntD2Ev(ptr noundef nonnull align 8 dereferenceable(12) %10) #11
  br label %42

42:                                               ; preds = %40, %24, %14
  %43 = load i1, ptr %5, align 1
  ret i1 %43
}