; Function Attrs: mustprogress nounwind uwtable
define internal fastcc noundef zeroext i1 @_ZL10isMultipleRKN4llvm5APIntES2_RS0_b(ptr noundef nonnull align 8 dereferenceable(12) %0, ptr noundef nonnull align 8 dereferenceable(12) %1, ptr noundef nonnull align 8 dereferenceable(12) %2, i1 noundef zeroext %3) unnamed_addr #0 {
  %5 = alloca %"class.llvm::APInt", align 8
  %6 = getelementptr inbounds nuw i8, ptr %1, i64 8
  %7 = load i32, ptr %6, align 8
  %8 = icmp ult i32 %7, 65
  br i1 %8, label %9, label %_ZNK4llvm5APInt6isZeroEv.exit

9:                                                ; preds = %4
  %10 = load i64, ptr %1, align 8
  %11 = icmp eq i64 %10, 0
  br i1 %11, label %_ZN4llvm5APIntD2Ev.exit, label %14

_ZNK4llvm5APInt6isZeroEv.exit:                    ; preds = %4
  %12 = tail call noundef i32 @_ZNK4llvm5APInt25countLeadingZerosSlowCaseEv(ptr noundef nonnull align 8 dereferenceable(12) %1) #14
  %13 = icmp eq i32 %12, %7
  br i1 %13, label %_ZN4llvm5APIntD2Ev.exit, label %14

14:                                               ; preds = %9, %_ZNK4llvm5APInt6isZeroEv.exit
  %15 = getelementptr inbounds nuw i8, ptr %0, i64 8
  %16 = load i32, ptr %15, align 8
  br i1 %3, label %17, label %.critedge

17:                                               ; preds = %14
  %18 = icmp ult i32 %16, 65
  br i1 %18, label %19, label %26

19:                                               ; preds = %17
  %20 = load i64, ptr %0, align 8
  %21 = add nsw i32 %16, -1
  %22 = zext nneg i32 %21 to i64
  %23 = shl nuw i64 1, %22
  %24 = icmp eq i64 %20, %23
  br i1 %24, label %39, label %.thread19

.thread19:                                        ; preds = %19
  %25 = getelementptr inbounds nuw i8, ptr %5, i64 8
  store i32 %16, ptr %25, align 8
  br label %53

26:                                               ; preds = %17
  %27 = add i32 %16, -1
  %28 = and i32 %27, 63
  %29 = zext nneg i32 %28 to i64
  %30 = shl nuw i64 1, %29
  %31 = load ptr, ptr %0, align 8
  %32 = lshr i32 %27, 6
  %33 = zext nneg i32 %32 to i64
  %34 = getelementptr inbounds i64, ptr %31, i64 %33
  %35 = load i64, ptr %34, align 8
  %36 = and i64 %35, %30
  %.not.i = icmp eq i64 %36, 0
  br i1 %.not.i, label %.thread, label %_ZNK4llvm5APInt16isMinSignedValueEv.exit

_ZNK4llvm5APInt16isMinSignedValueEv.exit:         ; preds = %26
  %37 = tail call noundef i32 @_ZNK4llvm5APInt26countTrailingZerosSlowCaseEv(ptr noundef nonnull align 8 dereferenceable(12) %0) #14
  %38 = icmp eq i32 %37, %27
  br i1 %38, label %39, label %.thread

39:                                               ; preds = %19, %_ZNK4llvm5APInt16isMinSignedValueEv.exit
  %40 = icmp eq i32 %7, 0
  br i1 %40, label %_ZN4llvm5APIntD2Ev.exit, label %41

41:                                               ; preds = %39
  br i1 %8, label %42, label %_ZNK4llvm5APInt9isAllOnesEv.exit

42:                                               ; preds = %41
  %43 = load i64, ptr %1, align 8
  %44 = sub nuw nsw i32 64, %7
  %45 = zext nneg i32 %44 to i64
  %46 = lshr i64 -1, %45
  %47 = icmp eq i64 %43, %46
  br i1 %47, label %_ZN4llvm5APIntD2Ev.exit, label %51

_ZNK4llvm5APInt9isAllOnesEv.exit:                 ; preds = %41
  %48 = tail call noundef i32 @_ZNK4llvm5APInt25countTrailingOnesSlowCaseEv(ptr noundef nonnull align 8 dereferenceable(12) %1) #14
  %49 = icmp eq i32 %48, %7
  br i1 %49, label %_ZN4llvm5APIntD2Ev.exit, label %51

.thread:                                          ; preds = %_ZNK4llvm5APInt16isMinSignedValueEv.exit, %26
  %50 = getelementptr inbounds nuw i8, ptr %5, i64 8
  store i32 %16, ptr %50, align 8
  br label %54

51:                                               ; preds = %42, %_ZNK4llvm5APInt9isAllOnesEv.exit
  %52 = getelementptr inbounds nuw i8, ptr %5, i64 8
  store i32 %16, ptr %52, align 8
  br i1 %18, label %53, label %54

53:                                               ; preds = %.thread19, %51
  store i64 0, ptr %5, align 8
  br label %_ZN4llvm5APIntC2Ejmbb.exit

54:                                               ; preds = %.thread, %51
  call void @_ZN4llvm5APInt12initSlowCaseEmb(ptr noundef nonnull align 8 dereferenceable(12) %5, i64 noundef 0, i1 noundef zeroext true) #15
  br label %_ZN4llvm5APIntC2Ejmbb.exit

_ZN4llvm5APIntC2Ejmbb.exit:                       ; preds = %54, %53
  call void @_ZN4llvm5APInt7sdivremERKS0_S2_RS0_S3_(ptr noundef nonnull align 8 dereferenceable(12) %0, ptr noundef nonnull align 8 dereferenceable(12) %1, ptr noundef nonnull align 8 dereferenceable(12) %2, ptr noundef nonnull align 8 dereferenceable(12) %5) #15
  br label %59

.critedge:                                        ; preds = %14
  %55 = getelementptr inbounds nuw i8, ptr %5, i64 8
  store i32 %16, ptr %55, align 8
  %56 = icmp ult i32 %16, 65
  br i1 %56, label %57, label %58

57:                                               ; preds = %.critedge
  store i64 0, ptr %5, align 8
  br label %_ZN4llvm5APIntC2Ejmbb.exit16

58:                                               ; preds = %.critedge
  call void @_ZN4llvm5APInt12initSlowCaseEmb(ptr noundef nonnull align 8 dereferenceable(12) %5, i64 noundef 0, i1 noundef zeroext false) #15
  br label %_ZN4llvm5APIntC2Ejmbb.exit16

_ZN4llvm5APIntC2Ejmbb.exit16:                     ; preds = %58, %57
  call void @_ZN4llvm5APInt7udivremERKS0_S2_RS0_S3_(ptr noundef nonnull align 8 dereferenceable(12) %0, ptr noundef nonnull align 8 dereferenceable(12) %1, ptr noundef nonnull align 8 dereferenceable(12) %2, ptr noundef nonnull align 8 dereferenceable(12) %5) #15
  br label %59

59:                                               ; preds = %_ZN4llvm5APIntC2Ejmbb.exit16, %_ZN4llvm5APIntC2Ejmbb.exit
  %60 = getelementptr inbounds nuw i8, ptr %5, i64 8
  %61 = load i32, ptr %60, align 8
  %62 = icmp ult i32 %61, 65
  br i1 %62, label %_ZNK4llvm5APInt10isMinValueEv.exit, label %65

_ZNK4llvm5APInt10isMinValueEv.exit:               ; preds = %59
  %63 = load i64, ptr %5, align 8
  %64 = icmp eq i64 %63, 0
  br label %_ZN4llvm5APIntD2Ev.exit

65:                                               ; preds = %59
  %66 = call noundef i32 @_ZNK4llvm5APInt25countLeadingZerosSlowCaseEv(ptr noundef nonnull align 8 dereferenceable(12) %5) #14
  %67 = icmp eq i32 %66, %61
  %68 = load ptr, ptr %5, align 8
  %69 = icmp eq ptr %68, null
  br i1 %69, label %_ZN4llvm5APIntD2Ev.exit, label %70

70:                                               ; preds = %65
  call void @_ZdaPv(ptr noundef nonnull %68) #16
  br label %_ZN4llvm5APIntD2Ev.exit

_ZN4llvm5APIntD2Ev.exit:                          ; preds = %39, %70, %65, %_ZNK4llvm5APInt10isMinValueEv.exit, %42, %9, %_ZNK4llvm5APInt9isAllOnesEv.exit, %_ZNK4llvm5APInt6isZeroEv.exit
  %.0 = phi i1 [ false, %_ZNK4llvm5APInt6isZeroEv.exit ], [ false, %_ZNK4llvm5APInt9isAllOnesEv.exit ], [ false, %9 ], [ false, %42 ], [ %64, %_ZNK4llvm5APInt10isMinValueEv.exit ], [ %67, %65 ], [ %67, %70 ], [ false, %39 ]
  ret i1 %.0
}